(lp0
F0.0
aF6.566666666666666
aF10.066666666666666
aF49.96666666666667
aF60.43333333333333
aF65.8
aF97.6
aF83.33333333333333
aF95.86666666666666
aF107.33333333333333
aF88.23333333333333
aF84.76666666666667
aF130.9
aF110.33333333333333
aF129.5
aF94.6
aF128.16666666666666
aF127.8
aF99.73333333333333
aF114.3
aF122.46666666666667
aF127.76666666666667
aF118.9
aF112.63333333333334
aF130.33333333333334
aF114.76666666666667
aF123.03333333333333
aF118.6
aF126.2
aF97.73333333333333
aF98.23333333333333
aF128.13333333333333
aF112.8
aF134.76666666666668
aF124.56666666666666
aF147.0
aF134.43333333333334
aF153.06666666666666
aF126.66666666666667
aF168.6
a.