(lp0
F1.0333333333333334
aF0.03333333333333333
aF0.1
aF0.26666666666666666
aF5.7
aF14.333333333333334
aF40.5
aF52.333333333333336
aF51.7
aF72.66666666666667
aF62.766666666666666
aF46.7
aF75.3
aF75.43333333333334
aF83.76666666666667
aF94.96666666666667
aF70.53333333333333
aF90.43333333333334
aF68.5
aF57.0
aF71.86666666666666
aF67.33333333333333
aF55.3
aF56.06666666666667
aF55.96666666666667
aF60.7
aF63.43333333333333
aF69.36666666666666
aF79.46666666666667
aF89.2
aF77.23333333333333
aF60.46666666666667
aF71.16666666666667
aF71.36666666666666
aF57.36666666666667
aF50.63333333333333
aF52.2
aF45.03333333333333
aF65.36666666666666
aF43.3
a.