(lp0
F0.0
aF0.03333333333333333
aF7.8
aF32.5
aF39.93333333333333
aF48.1
aF51.06666666666667
aF66.76666666666667
aF80.93333333333334
aF97.6
aF150.06666666666666
aF141.73333333333332
aF139.8
aF179.23333333333332
aF182.33333333333334
aF200.06666666666666
aF198.06666666666666
aF123.66666666666667
aF207.83333333333334
aF207.9
aF188.53333333333333
aF204.43333333333334
aF203.56666666666666
aF177.0
aF172.73333333333332
aF230.1
aF129.33333333333334
aF223.46666666666667
aF249.4
aF170.16666666666666
aF218.93333333333334
aF225.9
aF172.7
aF299.0
aF216.6
aF205.76666666666668
aF183.13333333333333
aF312.5
aF144.86666666666667
aF263.8333333333333
a.