(lp0
F0.0
aF113.13333333333334
aF120.66666666666667
aF138.46666666666667
aF193.2
aF201.2
aF173.53333333333333
aF203.13333333333333
aF196.83333333333334
aF272.7
aF192.46666666666667
aF245.0
aF198.9
aF228.03333333333333
aF161.56666666666666
aF211.36666666666667
aF153.06666666666666
aF227.2
aF251.63333333333333
aF236.13333333333333
aF134.66666666666666
aF263.5
aF200.16666666666666
aF194.06666666666666
aF260.5
aF206.13333333333333
aF234.96666666666667
aF217.03333333333333
aF227.13333333333333
aF246.46666666666667
aF293.3333333333333
aF188.13333333333333
aF166.76666666666668
aF221.46666666666667
aF286.53333333333336
aF263.3333333333333
aF193.93333333333334
aF265.03333333333336
aF143.33333333333334
aF212.9
aF146.86666666666667
aF224.06666666666666
aF204.06666666666666
aF245.86666666666667
aF293.1
aF318.73333333333335
aF305.9
aF216.76666666666668
aF195.5
aF311.2
aF218.63333333333333
aF360.9
aF247.36666666666667
aF221.66666666666666
aF404.1
aF282.7
aF330.3
aF278.9
aF265.8
aF227.16666666666666
aF272.3666666666667
aF258.46666666666664
aF387.23333333333335
aF379.1666666666667
aF379.1333333333333
aF371.06666666666666
aF381.2
aF411.3
aF394.56666666666666
aF363.4
aF294.2
aF305.06666666666666
aF240.96666666666667
aF453.1333333333333
aF323.26666666666665
aF462.93333333333334
aF409.8
aF272.5
aF323.46666666666664
aF425.93333333333334
aF401.1
a.