(lp0
F138.96666666666667
aF89.03333333333333
aF105.66666666666667
aF134.0
aF125.36666666666666
aF184.76666666666668
aF163.1
aF162.2
aF169.93333333333334
aF151.2
aF232.96666666666667
aF311.1666666666667
aF261.8333333333333
aF245.5
aF286.6333333333333
aF226.76666666666668
aF200.8
aF210.23333333333332
aF276.3666666666667
aF352.8
aF285.96666666666664
aF384.3666666666667
aF236.5
aF306.3666666666667
aF347.6
aF295.6
aF314.3666666666667
aF370.3
aF404.2
aF347.4
aF319.06666666666666
aF334.03333333333336
aF352.53333333333336
aF365.1
aF323.1333333333333
aF328.1333333333333
aF376.3
aF364.96666666666664
aF294.8666666666667
aF373.06666666666666
a.