(lp0
F0.3
aF31.1
aF30.466666666666665
aF41.3
aF40.36666666666667
aF44.86666666666667
aF48.96666666666667
aF54.8
aF41.13333333333333
aF43.93333333333333
aF58.233333333333334
aF59.06666666666667
aF52.56666666666667
aF63.0
aF62.266666666666666
aF60.6
aF66.96666666666667
aF52.266666666666666
aF52.5
aF69.93333333333334
aF66.03333333333333
aF86.7
aF74.66666666666667
aF82.6
aF76.4
aF61.1
aF53.9
aF66.76666666666667
aF80.46666666666667
aF48.93333333333333
aF61.36666666666667
aF60.9
aF75.0
aF85.36666666666666
aF80.16666666666667
aF58.63333333333333
aF49.93333333333333
aF59.6
aF60.93333333333333
aF70.06666666666666
aF54.13333333333333
a.