(lp0
F0.0
aF39.36666666666667
aF107.53333333333333
aF86.96666666666667
aF104.06666666666666
aF74.06666666666666
aF150.46666666666667
aF125.26666666666667
aF122.33333333333333
aF109.0
aF137.33333333333334
aF101.4
aF113.56666666666666
aF135.76666666666668
aF92.7
aF106.33333333333333
aF95.66666666666667
aF86.76666666666667
aF111.43333333333334
aF124.96666666666667
aF136.8
aF104.5
aF93.83333333333333
aF164.9
aF100.6
aF106.1
aF161.3
aF132.1
aF95.56666666666666
aF145.63333333333333
aF169.1
aF122.06666666666666
aF107.86666666666666
aF158.4
aF104.06666666666666
aF132.43333333333334
aF115.2
aF147.26666666666668
aF152.26666666666668
aF129.3
aF143.73333333333332
a.