(lp0
F0.0
aF54.2
aF64.56666666666666
aF76.33333333333333
aF85.5
aF82.03333333333333
aF79.03333333333333
aF120.96666666666667
aF79.06666666666666
aF81.53333333333333
aF108.56666666666666
aF118.06666666666666
aF131.9
aF114.4
aF138.36666666666667
aF118.4
aF77.6
aF119.93333333333334
aF166.76666666666668
aF139.03333333333333
aF187.63333333333333
aF155.26666666666668
aF109.2
aF136.73333333333332
aF123.3
aF121.93333333333334
aF145.83333333333334
aF128.8
aF112.26666666666667
aF183.36666666666667
aF155.76666666666668
aF189.46666666666667
aF239.7
aF159.6
aF172.43333333333334
aF201.66666666666666
aF174.9
aF136.73333333333332
aF131.06666666666666
aF147.0
aF144.96666666666667
a.