(lp0
F0.3333333333333333
aF26.966666666666665
aF28.166666666666668
aF37.13333333333333
aF48.6
aF35.733333333333334
aF40.8
aF41.06666666666667
aF34.86666666666667
aF54.166666666666664
aF66.63333333333334
aF60.03333333333333
aF52.6
aF45.93333333333333
aF56.93333333333333
aF50.63333333333333
aF70.33333333333333
aF64.96666666666667
aF62.1
aF72.2
aF60.1
aF52.733333333333334
aF60.6
aF54.7
aF90.13333333333334
aF87.93333333333334
aF66.06666666666666
aF78.93333333333334
aF75.36666666666666
aF82.96666666666667
aF85.36666666666666
aF90.76666666666667
aF58.833333333333336
aF81.63333333333334
aF84.63333333333334
aF95.0
aF63.166666666666664
aF78.16666666666667
aF53.0
aF62.03333333333333
aF76.36666666666666
a.